target datalayout = "e-m:e-p270:32:32-p271:32:32-p272:64:64-i64:64-i128:128-f80:128-n8:16:32:64-S128"
target triple = "x86_64-pc-linux-gnu"

%struct.opj_j2k = type { i32, %union.anon, ptr, ptr, %struct.opj_cp, ptr, ptr, ptr, i32, ptr, ptr, i32, i32, i32 }
%union.anon = type { %struct.opj_j2k_dec }
%struct.opj_j2k_dec = type { i32, ptr, ptr, i32, i32, i32, i32, i32, i32, i32, i64, i32, i32, ptr, %struct.opj_j2k_tlm_info, i32, i32, ptr, i8 }
%struct.opj_j2k_tlm_info = type { i32, ptr, i32 }
%struct.opj_cp = type { i16, i32, i32, i32, i32, ptr, i32, i32, i32, ptr, ptr, i32, i32, ptr, ptr, ptr, i32, i32, i32, ptr, %union.anon.0, i32, i8 }
%union.anon.0 = type { %struct.opj_encoding_param }
%struct.opj_encoding_param = type { i32, i32, ptr, i8, i32, i8 }
%struct.opj_poc = type { i32, i32, i32, i32, i32, i32, i32, i32, i32, i32, [5 x i8], i32, i32, i32, i32, i32, i32, i32, i32, i32, i32, i32, i32, i32, i32, i32, i32, i32, i32, i32, i32, i32, i32, i32, i32, i32 }
%struct.opj_image = type { i32, i32, i32, i32, i32, i32, ptr, ptr, i32 }
%struct.opj_tcp = type { i32, i32, i32, i32, i32, [100 x float], i32, [32 x %struct.opj_poc], i32, ptr, ptr, ptr, i32, i32, [100 x float], ptr, i32, i32, ptr, i32, ptr, ptr, ptr, ptr, i32, i32, ptr, i32, i32, i8 }
%struct.opj_tccp = type { i32, i32, i32, i32, i32, i32, i32, [97 x %struct.opj_stepsize], i32, i32, [33 x i32], [33 x i32], i32 }
%struct.opj_stepsize = type { i32, i32 }

@.str.202 = private unnamed_addr constant [26 x i8] c"Error reading RGN marker\0A\00", align 1
@.str.203 = private unnamed_addr constant [57 x i8] c"bad component number in RGN (%d when there are only %d)\0A\00", align 1

; Function Attrs: nounwind uwtable
define internal i32 @opj_j2k_read_rgn(ptr noundef %0, ptr noundef %1, i32 noundef %2, ptr noundef %3) #0 {
  %5 = alloca i32, align 4
  %6 = alloca ptr, align 8
  %7 = alloca ptr, align 8
  %8 = alloca i32, align 4
  %9 = alloca ptr, align 8
  %10 = alloca i32, align 4
  %11 = alloca ptr, align 8
  %12 = alloca ptr, align 8
  %13 = alloca ptr, align 8
  %14 = alloca i32, align 4
  %15 = alloca i32, align 4
  %16 = alloca i32, align 4
  %17 = alloca i32, align 4
  store ptr %0, ptr %6, align 8, !tbaa !14
  store ptr %1, ptr %7, align 8, !tbaa !44
  store i32 %2, ptr %8, align 4, !tbaa !3
  store ptr %3, ptr %9, align 8, !tbaa !48
  call void @llvm.lifetime.start.p0(i64 4, ptr %10) #10
  call void @llvm.lifetime.start.p0(i64 8, ptr %11) #10
  store ptr null, ptr %11, align 8, !tbaa !47
  call void @llvm.lifetime.start.p0(i64 8, ptr %12) #10
  store ptr null, ptr %12, align 8, !tbaa !50
  call void @llvm.lifetime.start.p0(i64 8, ptr %13) #10
  store ptr null, ptr %13, align 8, !tbaa !103
  call void @llvm.lifetime.start.p0(i64 4, ptr %14) #10
  call void @llvm.lifetime.start.p0(i64 4, ptr %15) #10
  call void @llvm.lifetime.start.p0(i64 4, ptr %16) #10
  %18 = load ptr, ptr %6, align 8, !tbaa !14
  %19 = getelementptr inbounds nuw %struct.opj_j2k, ptr %18, i32 0, i32 2
  %20 = load ptr, ptr %19, align 8, !tbaa !42
  store ptr %20, ptr %11, align 8, !tbaa !47
  %21 = load ptr, ptr %11, align 8, !tbaa !47
  %22 = getelementptr inbounds nuw %struct.opj_image, ptr %21, i32 0, i32 4
  %23 = load i32, ptr %22, align 8, !tbaa !60
  store i32 %23, ptr %10, align 4, !tbaa !3
  %24 = load i32, ptr %10, align 4, !tbaa !3
  %25 = icmp ule i32 %24, 256
  br i1 %25, label %26, label %27

26:                                               ; preds = %4
  store i32 1, ptr %14, align 4, !tbaa !3
  br label %28

27:                                               ; preds = %4
  store i32 2, ptr %14, align 4, !tbaa !3
  br label %28

28:                                               ; preds = %27, %26
  %29 = load i32, ptr %8, align 4, !tbaa !3
  %30 = load i32, ptr %14, align 4, !tbaa !3
  %31 = add i32 2, %30
  %32 = icmp ne i32 %29, %31
  br i1 %32, label %33, label %36

33:                                               ; preds = %28
  %34 = load ptr, ptr %9, align 8, !tbaa !48
  %35 = call i32 (ptr, i32, ptr, ...) @opj_event_msg(ptr noundef %34, i32 noundef 1, ptr noundef @.str.202)
  store i32 0, ptr %5, align 4
  store i32 1, ptr %17, align 4
  br label %88

36:                                               ; preds = %28
  %37 = load ptr, ptr %6, align 8, !tbaa !14
  %38 = getelementptr inbounds nuw %struct.opj_j2k, ptr %37, i32 0, i32 4
  store ptr %38, ptr %12, align 8, !tbaa !50
  %39 = load ptr, ptr %6, align 8, !tbaa !14
  %40 = getelementptr inbounds nuw %struct.opj_j2k, ptr %39, i32 0, i32 1
  %41 = getelementptr inbounds nuw %struct.opj_j2k_dec, ptr %40, i32 0, i32 0
  %42 = load i32, ptr %41, align 8, !tbaa !20
  %43 = icmp eq i32 %42, 16
  br i1 %43, label %44, label %53

44:                                               ; preds = %36
  %45 = load ptr, ptr %12, align 8, !tbaa !50
  %46 = getelementptr inbounds nuw %struct.opj_cp, ptr %45, i32 0, i32 19
  %47 = load ptr, ptr %46, align 8, !tbaa !102
  %48 = load ptr, ptr %6, align 8, !tbaa !14
  %49 = getelementptr inbounds nuw %struct.opj_j2k, ptr %48, i32 0, i32 8
  %50 = load i32, ptr %49, align 8, !tbaa !248
  %51 = zext i32 %50 to i64
  %52 = getelementptr inbounds nuw %struct.opj_tcp, ptr %47, i64 %51
  br label %58

53:                                               ; preds = %36
  %54 = load ptr, ptr %6, align 8, !tbaa !14
  %55 = getelementptr inbounds nuw %struct.opj_j2k, ptr %54, i32 0, i32 1
  %56 = getelementptr inbounds nuw %struct.opj_j2k_dec, ptr %55, i32 0, i32 1
  %57 = load ptr, ptr %56, align 8, !tbaa !20
  br label %58

58:                                               ; preds = %53, %44
  %59 = phi ptr [ %52, %44 ], [ %57, %53 ]
  store ptr %59, ptr %13, align 8, !tbaa !103
  %60 = load ptr, ptr %7, align 8, !tbaa !44
  %61 = load i32, ptr %14, align 4, !tbaa !3
  call void @opj_read_bytes_LE(ptr noundef %60, ptr noundef %15, i32 noundef %61)
  %62 = load i32, ptr %14, align 4, !tbaa !3
  %63 = load ptr, ptr %7, align 8, !tbaa !44
  %64 = zext i32 %62 to i64
  %65 = getelementptr inbounds nuw i8, ptr %63, i64 %64
  store ptr %65, ptr %7, align 8, !tbaa !44
  %66 = load ptr, ptr %7, align 8, !tbaa !44
  call void @opj_read_bytes_LE(ptr noundef %66, ptr noundef %16, i32 noundef 1)
  %67 = load ptr, ptr %7, align 8, !tbaa !44
  %68 = getelementptr inbounds nuw i8, ptr %67, i32 1
  store ptr %68, ptr %7, align 8, !tbaa !44
  %69 = load i32, ptr %15, align 4, !tbaa !3
  %70 = load i32, ptr %10, align 4, !tbaa !3
  %71 = icmp uge i32 %69, %70
  br i1 %71, label %72, label %77

72:                                               ; preds = %58
  %73 = load ptr, ptr %9, align 8, !tbaa !48
  %74 = load i32, ptr %15, align 4, !tbaa !3
  %75 = load i32, ptr %10, align 4, !tbaa !3
  %76 = call i32 (ptr, i32, ptr, ...) @opj_event_msg(ptr noundef %73, i32 noundef 1, ptr noundef @.str.203, i32 noundef %74, i32 noundef %75)
  store i32 0, ptr %5, align 4
  store i32 1, ptr %17, align 4
  br label %88

77:                                               ; preds = %58
  %78 = load ptr, ptr %7, align 8, !tbaa !44
  %79 = load ptr, ptr %13, align 8, !tbaa !103
  %80 = getelementptr inbounds nuw %struct.opj_tcp, ptr %79, i32 0, i32 15
  %81 = load ptr, ptr %80, align 8, !tbaa !131
  %82 = load i32, ptr %15, align 4, !tbaa !3
  %83 = zext i32 %82 to i64
  %84 = getelementptr inbounds nuw %struct.opj_tccp, ptr %81, i64 %83
  %85 = getelementptr inbounds nuw %struct.opj_tccp, ptr %84, i32 0, i32 9
  call void @opj_read_bytes_LE(ptr noundef %78, ptr noundef %85, i32 noundef 1)
  %86 = load ptr, ptr %7, align 8, !tbaa !44
  %87 = getelementptr inbounds nuw i8, ptr %86, i32 1
  store ptr %87, ptr %7, align 8, !tbaa !44
  store i32 1, ptr %5, align 4
  store i32 1, ptr %17, align 4
  br label %88

88:                                               ; preds = %77, %72, %33
  call void @llvm.lifetime.end.p0(i64 4, ptr %16) #10
  call void @llvm.lifetime.end.p0(i64 4, ptr %15) #10
  call void @llvm.lifetime.end.p0(i64 4, ptr %14) #10
  call void @llvm.lifetime.end.p0(i64 8, ptr %13) #10
  call void @llvm.lifetime.end.p0(i64 8, ptr %12) #10
  call void @llvm.lifetime.end.p0(i64 8, ptr %11) #10
  call void @llvm.lifetime.end.p0(i64 4, ptr %10) #10
  %89 = load i32, ptr %5, align 4
  ret i32 %89
}