; Function Attrs: nounwind uwtable
define internal range(i32 0, 2) i32 @opj_j2k_read_rgn(ptr noundef readonly captures(none) %0, ptr noundef %1, i32 noundef %2, ptr noundef %3) #3 {
  %5 = alloca i32, align 4
  %6 = alloca i32, align 4
  call void @llvm.lifetime.start.p0(i64 4, ptr nonnull %5) #21
  call void @llvm.lifetime.start.p0(i64 4, ptr nonnull %6) #21
  %7 = getelementptr inbounds nuw i8, ptr %0, i64 136
  %8 = load ptr, ptr %7, align 8, !tbaa !47
  %9 = getelementptr inbounds nuw i8, ptr %8, i64 16
  %10 = load i32, ptr %9, align 8, !tbaa !58
  %11 = icmp ult i32 %10, 257
  %. = select i1 %11, i32 1, i32 2
  %12 = add nuw nsw i32 %., 2
  %.not = icmp eq i32 %2, %12
  br i1 %.not, label %15, label %13

13:                                               ; preds = %4
  %14 = tail call i32 (ptr, i32, ptr, ...) @opj_event_msg(ptr noundef %3, i32 noundef 1, ptr noundef nonnull @.str.202) #21
  br label %42

15:                                               ; preds = %4
  %16 = getelementptr inbounds nuw i8, ptr %0, i64 8
  %17 = load i32, ptr %16, align 8, !tbaa !12
  %18 = icmp eq i32 %17, 16
  br i1 %18, label %19, label %26

19:                                               ; preds = %15
  %20 = getelementptr inbounds nuw i8, ptr %0, i64 264
  %21 = load ptr, ptr %20, align 8, !tbaa !34
  %22 = getelementptr inbounds nuw i8, ptr %0, i64 336
  %23 = load i32, ptr %22, align 8, !tbaa !220
  %24 = zext i32 %23 to i64
  %25 = getelementptr inbounds nuw %struct.opj_tcp, ptr %21, i64 %24
  br label %29

26:                                               ; preds = %15
  %27 = getelementptr inbounds nuw i8, ptr %0, i64 16
  %28 = load ptr, ptr %27, align 8, !tbaa !12
  br label %29

29:                                               ; preds = %26, %19
  %30 = phi ptr [ %25, %19 ], [ %28, %26 ]
  call void @opj_read_bytes_LE(ptr noundef %1, ptr noundef nonnull %5, i32 noundef %.) #21
  %31 = zext nneg i32 %. to i64
  %32 = getelementptr inbounds nuw i8, ptr %1, i64 %31
  call void @opj_read_bytes_LE(ptr noundef nonnull %32, ptr noundef nonnull %6, i32 noundef 1) #21
  %33 = load i32, ptr %5, align 4, !tbaa !125
  %.not26 = icmp ult i32 %33, %10
  br i1 %.not26, label %36, label %34

34:                                               ; preds = %29
  %35 = call i32 (ptr, i32, ptr, ...) @opj_event_msg(ptr noundef %3, i32 noundef 1, ptr noundef nonnull @.str.203, i32 noundef %33, i32 noundef %10) #21
  br label %42

36:                                               ; preds = %29
  %37 = getelementptr inbounds nuw i8, ptr %32, i64 1
  %38 = getelementptr inbounds nuw i8, ptr %30, i64 5600
  %39 = load ptr, ptr %38, align 8, !tbaa !120
  %40 = zext i32 %33 to i64
  %41 = getelementptr inbounds nuw %struct.opj_tccp, ptr %39, i64 %40, i32 9
  call void @opj_read_bytes_LE(ptr noundef nonnull %37, ptr noundef nonnull %41, i32 noundef 1) #21
  br label %42

42:                                               ; preds = %36, %34, %13
  %.023 = phi i32 [ 0, %13 ], [ 0, %34 ], [ 1, %36 ]
  call void @llvm.lifetime.end.p0(i64 4, ptr nonnull %6) #21
  call void @llvm.lifetime.end.p0(i64 4, ptr nonnull %5) #21
  ret i32 %.023
}